; Function Attrs: nounwind uwtable
define internal noundef i32 @be_pair_disable(ptr noundef %0, i16 noundef signext %1) #0 {
  %3 = and i16 %1, 2
  %.not = icmp eq i16 %3, 0
  br i1 %.not, label %7, label %4

4:                                                ; preds = %2
  %5 = getelementptr inbounds nuw i8, ptr %0, i64 16
  %6 = tail call i32 @event_del(ptr noundef nonnull %5) #4
  br label %7

7:                                                ; preds = %4, %2
  %8 = and i16 %1, 4
  %.not3 = icmp eq i16 %8, 0
  br i1 %.not3, label %12, label %9

9:                                                ; preds = %7
  %10 = getelementptr inbounds nuw i8, ptr %0, i64 136
  %11 = tail call i32 @event_del(ptr noundef nonnull %10) #4
  br label %12

12:                                               ; preds = %9, %7
  ret i32 0
}